(dp0
S'filterUpV'
p1
I214
sS'upper'
p2
I33
sS'lower'
p3
I0
sS'filterDown'
p4
I52
sS'filterUpS'
p5
I255
sS'dilate'
p6
I1
sS'smooth'
p7
I24
sS'filterDownS'
p8
I0
sS'filterDownV'
p9
I20
sS'erode'
p10
I12
sS'filterUp'
p11
I255
s.